target datalayout = "e-m:e-p270:32:32-p271:32:32-p272:64:64-i64:64-i128:128-f80:128-n8:16:32:64-S128"
target triple = "x86_64-pc-linux-gnu"

%class.btPolarDecomposition = type { float, i32 }

@_ZZ14polarDecomposeRK11btMatrix3x3RS_S2_E5polar = internal global %class.btPolarDecomposition zeroinitializer, align 4
@_ZGVZ14polarDecomposeRK11btMatrix3x3RS_S2_E5polar = internal global i64 0, align 8
@_ZN20btPolarDecompositionC1Efj = dso_local unnamed_addr alias void (ptr, float, i32), ptr @_ZN20btPolarDecompositionC2Efj

; Function Attrs: mustprogress uwtable
define dso_local noundef i32 @_Z14polarDecomposeRK11btMatrix3x3RS_S2_(ptr noundef nonnull align 4 dereferenceable(48) %0, ptr noundef nonnull align 4 dereferenceable(48) %1, ptr noundef nonnull align 4 dereferenceable(48) %2) #2 personality ptr @__gxx_personality_v0 {
  %4 = alloca ptr, align 8
  %5 = alloca ptr, align 8
  %6 = alloca ptr, align 8
  %7 = alloca ptr, align 8
  %8 = alloca i32, align 4
  store ptr %0, ptr %4, align 8, !tbaa !19
  store ptr %1, ptr %5, align 8, !tbaa !19
  store ptr %2, ptr %6, align 8, !tbaa !19
  %9 = load atomic i8, ptr @_ZGVZ14polarDecomposeRK11btMatrix3x3RS_S2_E5polar acquire, align 8
  %10 = icmp eq i8 %9, 0
  br i1 %10, label %11, label %16, !prof !26

11:                                               ; preds = %3
  %12 = call i32 @__cxa_guard_acquire(ptr @_ZGVZ14polarDecomposeRK11btMatrix3x3RS_S2_E5polar) #6
  %13 = icmp ne i32 %12, 0
  br i1 %13, label %14, label %16

14:                                               ; preds = %11
  invoke void @_ZN20btPolarDecompositionC1Efj(ptr noundef nonnull align 4 dereferenceable(8) @_ZZ14polarDecomposeRK11btMatrix3x3RS_S2_E5polar, float noundef 0x3F1A36E2E0000000, i32 noundef 16)
          to label %15 unwind label %21

15:                                               ; preds = %14
  call void @__cxa_guard_release(ptr @_ZGVZ14polarDecomposeRK11btMatrix3x3RS_S2_E5polar) #6
  br label %16

16:                                               ; preds = %15, %11, %3
  %17 = load ptr, ptr %4, align 8, !tbaa !19
  %18 = load ptr, ptr %5, align 8, !tbaa !19
  %19 = load ptr, ptr %6, align 8, !tbaa !19
  %20 = call noundef i32 @_ZNK20btPolarDecomposition9decomposeERK11btMatrix3x3RS0_S3_(ptr noundef nonnull align 4 dereferenceable(8) @_ZZ14polarDecomposeRK11btMatrix3x3RS_S2_E5polar, ptr noundef nonnull align 4 dereferenceable(48) %17, ptr noundef nonnull align 4 dereferenceable(48) %18, ptr noundef nonnull align 4 dereferenceable(48) %19)
  ret i32 %20

21:                                               ; preds = %14
  %22 = landingpad { ptr, i32 }
          cleanup
  %23 = extractvalue { ptr, i32 } %22, 0
  store ptr %23, ptr %7, align 8
  %24 = extractvalue { ptr, i32 } %22, 1
  store i32 %24, ptr %8, align 4
  call void @__cxa_guard_abort(ptr @_ZGVZ14polarDecomposeRK11btMatrix3x3RS_S2_E5polar) #6
  br label %25

25:                                               ; preds = %21
  %26 = load ptr, ptr %7, align 8
  %27 = load i32, ptr %8, align 4
  %28 = insertvalue { ptr, i32 } poison, ptr %26, 0
  %29 = insertvalue { ptr, i32 } %28, i32 %27, 1
  resume { ptr, i32 } %29
}