; Function Attrs: mustprogress nofree nounwind uwtable
define dso_local noundef i32 @_Z14polarDecomposeRK11btMatrix3x3RS_S2_(ptr noundef nonnull readonly align 4 captures(none) dereferenceable(48) %0, ptr noundef nonnull align 4 captures(none) dereferenceable(48) initializes((0, 48)) %1, ptr noundef nonnull writeonly align 4 captures(none) dereferenceable(48) initializes((0, 48)) %2) local_unnamed_addr #3 personality ptr @__gxx_personality_v0 {
  %4 = load atomic i8, ptr @_ZGVZ14polarDecomposeRK11btMatrix3x3RS_S2_E5polar acquire, align 8
  %5 = icmp eq i8 %4, 0
  br i1 %5, label %6, label %9, !prof !32

6:                                                ; preds = %3
  %7 = tail call i32 @__cxa_guard_acquire(ptr nonnull @_ZGVZ14polarDecomposeRK11btMatrix3x3RS_S2_E5polar) #8
  %.not = icmp eq i32 %7, 0
  br i1 %.not, label %9, label %8

8:                                                ; preds = %6
  store float 0x3F1A36E2E0000000, ptr @_ZZ14polarDecomposeRK11btMatrix3x3RS_S2_E5polar, align 4, !tbaa !4
  store i32 16, ptr getelementptr inbounds nuw (i8, ptr @_ZZ14polarDecomposeRK11btMatrix3x3RS_S2_E5polar, i64 4), align 4, !tbaa !10
  tail call void @__cxa_guard_release(ptr nonnull @_ZGVZ14polarDecomposeRK11btMatrix3x3RS_S2_E5polar) #8
  br label %9

9:                                                ; preds = %8, %6, %3
  %10 = tail call noundef i32 @_ZNK20btPolarDecomposition9decomposeERK11btMatrix3x3RS0_S3_(ptr noundef nonnull align 4 dereferenceable(8) @_ZZ14polarDecomposeRK11btMatrix3x3RS_S2_E5polar, ptr noundef nonnull align 4 dereferenceable(48) %0, ptr noundef nonnull align 4 dereferenceable(48) %1, ptr noundef nonnull align 4 dereferenceable(48) %2)
  ret i32 %10
}